; Function Attrs: mustprogress uwtable
define void @_ZN5boost7process2v23ext3cwdEi(ptr dead_on_unwind noalias writable sret(%"class.boost::filesystem::path") align 8 %0, i32 noundef %1) local_unnamed_addr #4 personality ptr @__gxx_personality_v0 {
  %3 = alloca %"class.boost::system::error_code", align 8
  call void @llvm.lifetime.start.p0(i64 24, ptr nonnull %3) #13
  call void @llvm.memset.p0.i64(ptr noundef nonnull align 8 dereferenceable(24) %3, i8 0, i64 24, i1 false)
  call void @_ZN5boost7process2v23ext3cwdEiRNS_6system10error_codeE(ptr dead_on_unwind writable sret(%"class.boost::filesystem::path") align 8 %0, i32 noundef %1, ptr noundef nonnull align 8 dereferenceable(24) %3)
  %4 = getelementptr inbounds nuw i8, ptr %3, i64 16
  %5 = load i64, ptr %4, align 8, !tbaa !22
  %6 = and i64 %5, 1
  %.not.i.i = icmp eq i64 %6, 0
  br i1 %.not.i.i, label %_ZN5boost7process2v26detail11throw_errorERKNS_6system10error_codeEPKc.exit, label %7

7:                                                ; preds = %2
  %8 = icmp eq i64 %5, 1
  %9 = load i32, ptr %3, align 8
  %.not7 = icmp eq i32 %9, 0
  %or.cond = select i1 %8, i1 %.not7, i1 false
  br i1 %or.cond, label %_ZN5boost7process2v26detail11throw_errorERKNS_6system10error_codeEPKc.exit, label %_ZNK5boost6system10error_codecvbEv.exit.thread.i

_ZNK5boost6system10error_codecvbEv.exit.thread.i: ; preds = %7
  invoke void @_ZN5boost7process2v26detail14do_throw_errorERKNS_6system10error_codeEPKc(ptr noundef nonnull align 8 dereferenceable(24) %3, ptr noundef nonnull @.str.6)
          to label %_ZN5boost7process2v26detail11throw_errorERKNS_6system10error_codeEPKc.exit unwind label %10

10:                                               ; preds = %_ZNK5boost6system10error_codecvbEv.exit.thread.i
  %11 = landingpad { ptr, i32 }
          cleanup
  %12 = load ptr, ptr %0, align 8, !tbaa !17
  %13 = getelementptr inbounds nuw i8, ptr %0, i64 16
  %14 = icmp eq ptr %12, %13
  br i1 %14, label %_ZNKSt7__cxx1112basic_stringIcSt11char_traitsIcESaIcEE11_M_is_localEv.exit.thread.i.i.i, label %_ZNKSt7__cxx1112basic_stringIcSt11char_traitsIcESaIcEE11_M_is_localEv.exit.i.i.i

_ZNKSt7__cxx1112basic_stringIcSt11char_traitsIcESaIcEE11_M_is_localEv.exit.thread.i.i.i: ; preds = %10
  %15 = getelementptr inbounds nuw i8, ptr %0, i64 8
  %16 = load i64, ptr %15, align 8, !tbaa !8
  %17 = icmp ult i64 %16, 16
  call void @llvm.assume(i1 %17)
  br label %_ZN5boost10filesystem4pathD2Ev.exit

_ZNKSt7__cxx1112basic_stringIcSt11char_traitsIcESaIcEE11_M_is_localEv.exit.i.i.i: ; preds = %10
  %18 = load i64, ptr %13, align 8, !tbaa !11
  %19 = add i64 %18, 1
  call void @_ZdlPvm(ptr noundef %12, i64 noundef %19) #15
  br label %_ZN5boost10filesystem4pathD2Ev.exit

_ZN5boost10filesystem4pathD2Ev.exit:              ; preds = %_ZNKSt7__cxx1112basic_stringIcSt11char_traitsIcESaIcEE11_M_is_localEv.exit.thread.i.i.i, %_ZNKSt7__cxx1112basic_stringIcSt11char_traitsIcESaIcEE11_M_is_localEv.exit.i.i.i
  call void @llvm.lifetime.end.p0(i64 24, ptr nonnull %3) #13
  resume { ptr, i32 } %11

_ZN5boost7process2v26detail11throw_errorERKNS_6system10error_codeEPKc.exit: ; preds = %7, %2, %_ZNK5boost6system10error_codecvbEv.exit.thread.i
  call void @llvm.lifetime.end.p0(i64 24, ptr nonnull %3) #13
  ret void
}